; Function Attrs: mustprogress uwtable
define noundef double @_ZNK8QuantLib35GeneralizedOrnsteinUhlenbeckProcess9diffusionEdd(ptr noundef nonnull align 8 dereferenceable(224) %this, double noundef %t, double %0) unnamed_addr #6 align 2 {
entry:
  %__args.addr.i = alloca double, align 8
  call void @llvm.lifetime.start.p0(i64 8, ptr nonnull %__args.addr.i)
  store double %t, ptr %__args.addr.i, align 8, !tbaa !59
  %_M_manager.i.i = getelementptr inbounds nuw i8, ptr %this, i64 208
  %1 = load ptr, ptr %_M_manager.i.i, align 8, !tbaa !49
  %tobool.not.i.i = icmp eq ptr %1, null
  br i1 %tobool.not.i.i, label %if.then.i, label %_ZNKSt8functionIFddEEclEd.exit

if.then.i:                                        ; preds = %entry
  tail call void @_ZSt25__throw_bad_function_callv() #26
  unreachable

_ZNKSt8functionIFddEEclEd.exit:                   ; preds = %entry
  %volatility_ = getelementptr inbounds nuw i8, ptr %this, i64 192
  %_M_invoker.i = getelementptr inbounds nuw i8, ptr %this, i64 216
  %2 = load ptr, ptr %_M_invoker.i, align 8, !tbaa !48
  %call2.i = call noundef double %2(ptr noundef nonnull align 8 dereferenceable(16) %volatility_, ptr noundef nonnull align 8 dereferenceable(8) %__args.addr.i)
  call void @llvm.lifetime.end.p0(i64 8, ptr nonnull %__args.addr.i)
  ret double %call2.i
}